(dp0
Vengine
p1
Vpdflatex
p2
sVpackages
p3
c__builtin__
set
p4
((lp5
Vsubfigure
p6
aVfancyhdr
p7
aVcolor
p8
aVfullpage
p9
aVlistings
p10
aVamsmath
p11
aVamsthm
p12
aVurl
p13
aVifthen
p14
aVcaption
p15
aVgraphicx
p16
aVamssymb
p17
atp18
Rp19
sVfiles_with_guttermarks
p20
g4
((lp21
S'quiz4.tex'
p22
atp23
Rp24
sVsynctex
p25
I01
s.