(dp0
S'engine'
p1
S'pdflatex'
p2
sS'packages'
p3
c__builtin__
set
p4
((lp5
S'fancyhdr'
p6
aS'amsmath'
p7
aS'fullpage'
p8
aS'listings'
p9
aS'caption'
p10
aS'amsthm'
p11
aS'url'
p12
aS'ifthen'
p13
aS'graphicx'
p14
aS'color'
p15
aS'amssymb'
p16
atp17
Rp18
sS'files_with_guttermarks'
p19
g4
((lp20
S'hw4.tex'
p21
atp22
Rp23
sS'synctex'
p24
I01
s.